target datalayout = "e-m:e-p270:32:32-p271:32:32-p272:64:64-i64:64-i128:128-f80:128-n8:16:32:64-S128"
target triple = "x86_64-pc-linux-gnu"

%"class.std::_Function_base" = type { %"union.std::_Any_data", ptr }
%"union.std::_Any_data" = type { %"union.std::_Nocopy_types" }
%"union.std::_Nocopy_types" = type { { i64, i64 } }
%"class.std::function.215" = type { %"class.std::_Function_base", ptr }

; Function Attrs: mustprogress nounwind uwtable
define linkonce_odr hidden noundef ptr @_ZNSt9_Any_data9_M_accessEv(ptr noundef nonnull align 8 dereferenceable(16) %0) #6 comdat align 2 {
  %2 = alloca ptr, align 8
  store ptr %0, ptr %2, align 8, !tbaa !875
  %3 = load ptr, ptr %2, align 8
  %4 = getelementptr inbounds [16 x i8], ptr %3, i64 0, i64 0
  ret ptr %4
}

; Function Attrs: mustprogress nounwind uwtable
define internal void @"_ZNSt14_Function_base13_Base_managerIZN2bv6solver19internalize_circuitEP3appE3$_5E9_M_createIS5_EEvRSt9_Any_dataOT_St17integral_constantIbLb1EE"(ptr noundef nonnull align 8 dereferenceable(16) %0, ptr noundef nonnull align 8 dereferenceable(8) %1) #6 align 2 {
  %3 = alloca ptr, align 8
  %4 = alloca ptr, align 8
  store ptr %0, ptr %3, align 8, !tbaa !875
  store ptr %1, ptr %4, align 8, !tbaa !246
  %5 = load ptr, ptr %3, align 8, !tbaa !875
  %6 = call noundef ptr @_ZNSt9_Any_data9_M_accessEv(ptr noundef nonnull align 8 dereferenceable(16) %5) #3
  %7 = load ptr, ptr %4, align 8, !tbaa !246
  call void @llvm.memcpy.p0.p0.i64(ptr align 8 %6, ptr align 8 %7, i64 8, i1 false), !tbaa.struct !884
  ret void
}

; Function Attrs: inlinehint mustprogress nounwind uwtable
define linkonce_odr hidden void @_ZSt4swapIPFvRKSt9_Any_dataOjOPKP4exprS8_R10ref_vectorIS4_11ast_managerEEENSt9enable_ifIXsr6__and_ISt6__not_ISt15__is_tuple_likeIT_EESt21is_move_constructibleISI_ESt18is_move_assignableISI_EEE5valueEvE4typeERSI_SR_(ptr noundef nonnull align 8 dereferenceable(8) %0, ptr noundef nonnull align 8 dereferenceable(8) %1) #10 comdat {
  %3 = alloca ptr, align 8
  %4 = alloca ptr, align 8
  %5 = alloca ptr, align 8
  store ptr %0, ptr %3, align 8, !tbaa !886
  store ptr %1, ptr %4, align 8, !tbaa !886
  call void @llvm.lifetime.start.p0(i64 8, ptr %5) #3
  %6 = load ptr, ptr %3, align 8, !tbaa !886
  %7 = load ptr, ptr %6, align 8, !tbaa !246
  store ptr %7, ptr %5, align 8, !tbaa !246
  %8 = load ptr, ptr %4, align 8, !tbaa !886
  %9 = load ptr, ptr %8, align 8, !tbaa !246
  %10 = load ptr, ptr %3, align 8, !tbaa !886
  store ptr %9, ptr %10, align 8, !tbaa !246
  %11 = load ptr, ptr %5, align 8, !tbaa !246
  %12 = load ptr, ptr %4, align 8, !tbaa !886
  store ptr %11, ptr %12, align 8, !tbaa !246
  call void @llvm.lifetime.end.p0(i64 8, ptr %5) #3
  ret void
}

; Function Attrs: inlinehint mustprogress nounwind uwtable
define linkonce_odr void @_ZSt4swapIPFbRSt9_Any_dataRKS0_St18_Manager_operationEENSt9enable_ifIXsr6__and_ISt6__not_ISt15__is_tuple_likeIT_EESt21is_move_constructibleISA_ESt18is_move_assignableISA_EEE5valueEvE4typeERSA_SJ_(ptr noundef nonnull align 8 dereferenceable(8) %0, ptr noundef nonnull align 8 dereferenceable(8) %1) #10 comdat {
  %3 = alloca ptr, align 8
  %4 = alloca ptr, align 8
  %5 = alloca ptr, align 8
  store ptr %0, ptr %3, align 8, !tbaa !886
  store ptr %1, ptr %4, align 8, !tbaa !886
  call void @llvm.lifetime.start.p0(i64 8, ptr %5) #3
  %6 = load ptr, ptr %3, align 8, !tbaa !886
  %7 = load ptr, ptr %6, align 8, !tbaa !246
  store ptr %7, ptr %5, align 8, !tbaa !246
  %8 = load ptr, ptr %4, align 8, !tbaa !886
  %9 = load ptr, ptr %8, align 8, !tbaa !246
  %10 = load ptr, ptr %3, align 8, !tbaa !886
  store ptr %9, ptr %10, align 8, !tbaa !246
  %11 = load ptr, ptr %5, align 8, !tbaa !246
  %12 = load ptr, ptr %4, align 8, !tbaa !886
  store ptr %11, ptr %12, align 8, !tbaa !246
  call void @llvm.lifetime.end.p0(i64 8, ptr %5) #3
  ret void
}

; Function Attrs: inlinehint mustprogress nounwind uwtable
define linkonce_odr void @_ZSt4swapISt9_Any_dataENSt9enable_ifIXsr6__and_ISt6__not_ISt15__is_tuple_likeIT_EESt21is_move_constructibleIS4_ESt18is_move_assignableIS4_EEE5valueEvE4typeERS4_SD_(ptr noundef nonnull align 8 dereferenceable(16) %0, ptr noundef nonnull align 8 dereferenceable(16) %1) #10 comdat {
  %3 = alloca ptr, align 8
  %4 = alloca ptr, align 8
  %5 = alloca %"union.std::_Any_data", align 8
  store ptr %0, ptr %3, align 8, !tbaa !875
  store ptr %1, ptr %4, align 8, !tbaa !875
  call void @llvm.lifetime.start.p0(i64 16, ptr %5) #3
  %6 = load ptr, ptr %3, align 8, !tbaa !875
  call void @llvm.memcpy.p0.p0.i64(ptr align 8 %5, ptr align 8 %6, i64 16, i1 false), !tbaa.struct !885
  %7 = load ptr, ptr %4, align 8, !tbaa !875
  %8 = load ptr, ptr %3, align 8, !tbaa !875
  call void @llvm.memcpy.p0.p0.i64(ptr align 8 %8, ptr align 8 %7, i64 16, i1 false), !tbaa.struct !885
  %9 = load ptr, ptr %4, align 8, !tbaa !875
  call void @llvm.memcpy.p0.p0.i64(ptr align 8 %9, ptr align 8 %5, i64 16, i1 false), !tbaa.struct !885
  call void @llvm.lifetime.end.p0(i64 16, ptr %5) #3
  ret void
}

; Function Attrs: mustprogress nounwind uwtable
define internal void @"_ZNSt14_Function_base13_Base_managerIZN2bv6solver19internalize_circuitEP3appE3$_5E15_M_init_functorIS5_EEvRSt9_Any_dataOT_"(ptr noundef nonnull align 8 dereferenceable(16) %0, ptr noundef nonnull align 8 dereferenceable(8) %1) #6 align 2 personality ptr @__gxx_personality_v0 {
  %3 = alloca ptr, align 8
  %4 = alloca ptr, align 8
  store ptr %0, ptr %3, align 8, !tbaa !875
  store ptr %1, ptr %4, align 8, !tbaa !246
  %5 = load ptr, ptr %3, align 8, !tbaa !875
  %6 = load ptr, ptr %4, align 8, !tbaa !246
  invoke void @"_ZNSt14_Function_base13_Base_managerIZN2bv6solver19internalize_circuitEP3appE3$_5E9_M_createIS5_EEvRSt9_Any_dataOT_St17integral_constantIbLb1EE"(ptr noundef nonnull align 8 dereferenceable(16) %5, ptr noundef nonnull align 8 dereferenceable(8) %6)
          to label %7 unwind label %8

7:                                                ; preds = %2
  ret void

8:                                                ; preds = %2
  %9 = landingpad { ptr, i32 }
          catch ptr null
  %10 = extractvalue { ptr, i32 } %9, 0
  call void @__clang_call_terminate(ptr %10) #21
  unreachable
}

; Function Attrs: mustprogress nounwind uwtable
define internal noundef zeroext i1 @"_ZNSt14_Function_base13_Base_managerIZN2bv6solver19internalize_circuitEP3appE3$_5E21_M_not_empty_functionIS5_EEbRKT_"(ptr noundef nonnull align 8 dereferenceable(8) %0) #6 align 2 {
  %2 = alloca ptr, align 8
  store ptr %0, ptr %2, align 8, !tbaa !246
  ret i1 true
}

; Function Attrs: mustprogress nounwind uwtable
define linkonce_odr hidden void @_ZNSt14_Function_baseC2Ev(ptr noundef nonnull align 8 dereferenceable(24) %0) unnamed_addr #6 comdat align 2 {
  %2 = alloca ptr, align 8
  store ptr %0, ptr %2, align 8, !tbaa !262
  %3 = load ptr, ptr %2, align 8
  %4 = getelementptr inbounds nuw %"class.std::_Function_base", ptr %3, i32 0, i32 0
  store ptr null, ptr %4, align 8, !tbaa !296
  %5 = getelementptr inbounds nuw %"class.std::_Function_base", ptr %3, i32 0, i32 1
  store ptr null, ptr %5, align 8, !tbaa !264
  ret void
}

; Function Attrs: mustprogress nounwind uwtable
define linkonce_odr hidden void @_ZNSt14_Function_baseD2Ev(ptr noundef nonnull align 8 dereferenceable(24) %0) unnamed_addr #6 comdat align 2 personality ptr @__gxx_personality_v0 {
  %2 = alloca ptr, align 8
  store ptr %0, ptr %2, align 8, !tbaa !262
  %3 = load ptr, ptr %2, align 8
  %4 = getelementptr inbounds nuw %"class.std::_Function_base", ptr %3, i32 0, i32 1
  %5 = load ptr, ptr %4, align 8, !tbaa !264
  %6 = icmp ne ptr %5, null
  br i1 %6, label %7, label %14

7:                                                ; preds = %1
  %8 = getelementptr inbounds nuw %"class.std::_Function_base", ptr %3, i32 0, i32 1
  %9 = load ptr, ptr %8, align 8, !tbaa !264
  %10 = getelementptr inbounds nuw %"class.std::_Function_base", ptr %3, i32 0, i32 0
  %11 = getelementptr inbounds nuw %"class.std::_Function_base", ptr %3, i32 0, i32 0
  %12 = invoke noundef zeroext i1 %9(ptr noundef nonnull align 8 dereferenceable(16) %10, ptr noundef nonnull align 8 dereferenceable(16) %11, i32 noundef 3)
          to label %13 unwind label %15

13:                                               ; preds = %7
  br label %14

14:                                               ; preds = %13, %1
  ret void

15:                                               ; preds = %7
  %16 = landingpad { ptr, i32 }
          catch ptr null
  %17 = extractvalue { ptr, i32 } %16, 0
  call void @__clang_call_terminate(ptr %17) #21
  unreachable
}

; Function Attrs: mustprogress nounwind uwtable
define linkonce_odr hidden void @_ZNSt8functionIFvjPKP4exprS3_R10ref_vectorIS0_11ast_managerEEE4swapERS9_(ptr noundef nonnull align 8 dereferenceable(32) %0, ptr noundef nonnull align 8 dereferenceable(32) %1) #6 comdat align 2 {
  %3 = alloca ptr, align 8
  %4 = alloca ptr, align 8
  store ptr %0, ptr %3, align 8, !tbaa !220
  store ptr %1, ptr %4, align 8, !tbaa !220
  %5 = load ptr, ptr %3, align 8
  %6 = getelementptr inbounds nuw %"class.std::_Function_base", ptr %5, i32 0, i32 0
  %7 = load ptr, ptr %4, align 8, !tbaa !220
  %8 = getelementptr inbounds nuw %"class.std::_Function_base", ptr %7, i32 0, i32 0
  call void @_ZSt4swapISt9_Any_dataENSt9enable_ifIXsr6__and_ISt6__not_ISt15__is_tuple_likeIT_EESt21is_move_constructibleIS4_ESt18is_move_assignableIS4_EEE5valueEvE4typeERS4_SD_(ptr noundef nonnull align 8 dereferenceable(16) %6, ptr noundef nonnull align 8 dereferenceable(16) %8) #3
  %9 = getelementptr inbounds nuw %"class.std::_Function_base", ptr %5, i32 0, i32 1
  %10 = load ptr, ptr %4, align 8, !tbaa !220
  %11 = getelementptr inbounds nuw %"class.std::_Function_base", ptr %10, i32 0, i32 1
  call void @_ZSt4swapIPFbRSt9_Any_dataRKS0_St18_Manager_operationEENSt9enable_ifIXsr6__and_ISt6__not_ISt15__is_tuple_likeIT_EESt21is_move_constructibleISA_ESt18is_move_assignableISA_EEE5valueEvE4typeERSA_SJ_(ptr noundef nonnull align 8 dereferenceable(8) %9, ptr noundef nonnull align 8 dereferenceable(8) %11) #3
  %12 = getelementptr inbounds nuw %"class.std::function.215", ptr %5, i32 0, i32 1
  %13 = load ptr, ptr %4, align 8, !tbaa !220
  %14 = getelementptr inbounds nuw %"class.std::function.215", ptr %13, i32 0, i32 1
  call void @_ZSt4swapIPFvRKSt9_Any_dataOjOPKP4exprS8_R10ref_vectorIS4_11ast_managerEEENSt9enable_ifIXsr6__and_ISt6__not_ISt15__is_tuple_likeIT_EESt21is_move_constructibleISI_ESt18is_move_assignableISI_EEE5valueEvE4typeERSI_SR_(ptr noundef nonnull align 8 dereferenceable(8) %12, ptr noundef nonnull align 8 dereferenceable(8) %14) #3
  ret void
}

; Function Attrs: mustprogress nounwind uwtable
define internal void @"_ZNSt8functionIFvjPKP4exprS3_R10ref_vectorIS0_11ast_managerEEEC2IZN2bv6solver19internalize_circuitEP3appE3$_5vEEOT_"(ptr noundef nonnull align 8 dereferenceable(32) %0, ptr noundef nonnull align 8 dereferenceable(8) %1) unnamed_addr #6 align 2 {
  %3 = alloca ptr, align 8
  %4 = alloca ptr, align 8
  store ptr %0, ptr %3, align 8, !tbaa !220
  store ptr %1, ptr %4, align 8, !tbaa !246
  %5 = load ptr, ptr %3, align 8
  %6 = getelementptr inbounds i8, ptr %5, i64 0
  call void @llvm.memset.p0.i64(ptr align 8 %6, i8 0, i64 24, i1 false)
  call void @_ZNSt14_Function_baseC2Ev(ptr noundef nonnull align 8 dereferenceable(24) %5) #3
  %7 = getelementptr inbounds nuw %"class.std::function.215", ptr %5, i32 0, i32 1
  store ptr null, ptr %7, align 8, !tbaa !222
  %8 = load ptr, ptr %4, align 8, !tbaa !246
  %9 = call noundef zeroext i1 @"_ZNSt14_Function_base13_Base_managerIZN2bv6solver19internalize_circuitEP3appE3$_5E21_M_not_empty_functionIS5_EEbRKT_"(ptr noundef nonnull align 8 dereferenceable(8) %8) #3
  br i1 %9, label %10, label %15

10:                                               ; preds = %2
  %11 = getelementptr inbounds nuw %"class.std::_Function_base", ptr %5, i32 0, i32 0
  %12 = load ptr, ptr %4, align 8, !tbaa !246
  call void @"_ZNSt14_Function_base13_Base_managerIZN2bv6solver19internalize_circuitEP3appE3$_5E15_M_init_functorIS5_EEvRSt9_Any_dataOT_"(ptr noundef nonnull align 8 dereferenceable(16) %11, ptr noundef nonnull align 8 dereferenceable(8) %12) #3
  %13 = getelementptr inbounds nuw %"class.std::function.215", ptr %5, i32 0, i32 1
  store ptr @"_ZNSt17_Function_handlerIFvjPKP4exprS3_R10ref_vectorIS0_11ast_managerEEZN2bv6solver19internalize_circuitEP3appE3$_5E9_M_invokeERKSt9_Any_dataOjOS3_SJ_S7_", ptr %13, align 8, !tbaa !222
  %14 = getelementptr inbounds nuw %"class.std::_Function_base", ptr %5, i32 0, i32 1
  store ptr @"_ZNSt17_Function_handlerIFvjPKP4exprS3_R10ref_vectorIS0_11ast_managerEEZN2bv6solver19internalize_circuitEP3appE3$_5E10_M_managerERSt9_Any_dataRKSF_St18_Manager_operation", ptr %14, align 8, !tbaa !264
  br label %15

15:                                               ; preds = %10, %2
  ret void
}

; Function Attrs: mustprogress nounwind uwtable
define internal noundef nonnull align 8 dereferenceable(32) ptr @"_ZNSt8functionIFvjPKP4exprS3_R10ref_vectorIS0_11ast_managerEEEaSIZN2bv6solver19internalize_circuitEP3appE3$_5EENSt9enable_ifIXsr9_CallableIT_EE5valueERS9_E4typeEOSH_"(ptr noundef nonnull align 8 dereferenceable(32) %0, ptr noundef nonnull align 8 dereferenceable(8) %1) #6 align 2 {
  %3 = alloca ptr, align 8
  %4 = alloca ptr, align 8
  %5 = alloca %"class.std::function.215", align 8
  store ptr %0, ptr %3, align 8, !tbaa !220
  store ptr %1, ptr %4, align 8, !tbaa !246
  %6 = load ptr, ptr %3, align 8
  call void @llvm.lifetime.start.p0(i64 32, ptr %5) #3
  %7 = load ptr, ptr %4, align 8, !tbaa !246
  call void @"_ZNSt8functionIFvjPKP4exprS3_R10ref_vectorIS0_11ast_managerEEEC2IZN2bv6solver19internalize_circuitEP3appE3$_5vEEOT_"(ptr noundef nonnull align 8 dereferenceable(32) %5, ptr noundef nonnull align 8 dereferenceable(8) %7) #3
  call void @_ZNSt8functionIFvjPKP4exprS3_R10ref_vectorIS0_11ast_managerEEE4swapERS9_(ptr noundef nonnull align 8 dereferenceable(32) %5, ptr noundef nonnull align 8 dereferenceable(32) %6) #3
  call void @_ZNSt14_Function_baseD2Ev(ptr noundef nonnull align 8 dereferenceable(32) %5) #3
  call void @llvm.lifetime.end.p0(i64 32, ptr %5) #3
  ret ptr %6
}